target datalayout = "e-m:e-p270:32:32-p271:32:32-p272:64:64-i64:64-i128:128-f80:128-n8:16:32:64-S128"
target triple = "x86_64-pc-linux-gnu"

%struct.AVBSFContext = type { ptr, ptr, ptr, ptr, ptr, %struct.AVRational, %struct.AVRational }
%struct.AVRational = type { i32, i32 }
%struct.ProresMetadataContext = type { ptr, i32, i32, i32 }
%struct.AVPacket = type { ptr, i64, i64, ptr, i32, i32, i32, ptr, i32, i64, i64, ptr, ptr, %struct.AVRational }

@.str.26 = private unnamed_addr constant [33 x i8] c"not enough data in prores frame\0A\00", align 1
@.str.27 = private unnamed_addr constant [5 x i8] c"icpf\00", align 1
@.str.28 = private unnamed_addr constant [22 x i8] c"invalid frame header\0A\00", align 1
@.str.29 = private unnamed_addr constant [27 x i8] c"invalid frame header size\0A\00", align 1

; Function Attrs: alwaysinline nounwind willreturn memory(none) uwtable
define internal zeroext i16 @av_bswap16(i16 noundef zeroext %0) #3 {
  %2 = alloca i16, align 2
  store i16 %0, ptr %2, align 2, !tbaa !34
  %3 = load i16, ptr %2, align 2, !tbaa !34
  %4 = zext i16 %3 to i32
  %5 = ashr i32 %4, 8
  %6 = load i16, ptr %2, align 2, !tbaa !34
  %7 = zext i16 %6 to i32
  %8 = shl i32 %7, 8
  %9 = or i32 %5, %8
  %10 = trunc i32 %9 to i16
  store i16 %10, ptr %2, align 2, !tbaa !34
  %11 = load i16, ptr %2, align 2, !tbaa !34
  ret i16 %11
}

; Function Attrs: nounwind uwtable
define internal i32 @prores_metadata(ptr noundef %0, ptr noundef %1) #0 {
  %3 = alloca i32, align 4
  %4 = alloca ptr, align 8
  %5 = alloca ptr, align 8
  %6 = alloca ptr, align 8
  %7 = alloca i32, align 4
  %8 = alloca i32, align 4
  %9 = alloca ptr, align 8
  %10 = alloca i32, align 4
  store ptr %0, ptr %4, align 8, !tbaa !4
  store ptr %1, ptr %5, align 8, !tbaa !21
  call void @llvm.lifetime.start.p0(i64 8, ptr %6) #4
  %11 = load ptr, ptr %4, align 8, !tbaa !4
  %12 = getelementptr inbounds nuw %struct.AVBSFContext, ptr %11, i32 0, i32 2
  %13 = load ptr, ptr %12, align 8, !tbaa !9
  store ptr %13, ptr %6, align 8, !tbaa !16
  call void @llvm.lifetime.start.p0(i64 4, ptr %7) #4
  store i32 0, ptr %7, align 4, !tbaa !23
  call void @llvm.lifetime.start.p0(i64 4, ptr %8) #4
  call void @llvm.lifetime.start.p0(i64 8, ptr %9) #4
  %14 = load ptr, ptr %4, align 8, !tbaa !4
  %15 = load ptr, ptr %5, align 8, !tbaa !21
  %16 = call i32 @ff_bsf_get_packet_ref(ptr noundef %14, ptr noundef %15)
  store i32 %16, ptr %7, align 4, !tbaa !23
  %17 = load i32, ptr %7, align 4, !tbaa !23
  %18 = icmp slt i32 %17, 0
  br i1 %18, label %19, label %21

19:                                               ; preds = %2
  %20 = load i32, ptr %7, align 4, !tbaa !23
  store i32 %20, ptr %3, align 4
  store i32 1, ptr %10, align 4
  br label %99

21:                                               ; preds = %2
  %22 = load ptr, ptr %5, align 8, !tbaa !21
  %23 = call i32 @av_packet_make_writable(ptr noundef %22)
  store i32 %23, ptr %7, align 4, !tbaa !23
  %24 = load i32, ptr %7, align 4, !tbaa !23
  %25 = icmp slt i32 %24, 0
  br i1 %25, label %26, label %27

26:                                               ; preds = %21
  br label %92

27:                                               ; preds = %21
  %28 = load ptr, ptr %5, align 8, !tbaa !21
  %29 = getelementptr inbounds nuw %struct.AVPacket, ptr %28, i32 0, i32 3
  %30 = load ptr, ptr %29, align 8, !tbaa !24
  store ptr %30, ptr %9, align 8, !tbaa !30
  %31 = load ptr, ptr %5, align 8, !tbaa !21
  %32 = getelementptr inbounds nuw %struct.AVPacket, ptr %31, i32 0, i32 4
  %33 = load i32, ptr %32, align 8, !tbaa !31
  store i32 %33, ptr %8, align 4, !tbaa !23
  %34 = load i32, ptr %8, align 4, !tbaa !23
  %35 = icmp slt i32 %34, 28
  br i1 %35, label %36, label %38

36:                                               ; preds = %27
  %37 = load ptr, ptr %4, align 8, !tbaa !4
  call void (ptr, i32, ptr, ...) @av_log(ptr noundef %37, i32 noundef 16, ptr noundef @.str.26)
  store i32 -1094995529, ptr %7, align 4, !tbaa !23
  br label %92

38:                                               ; preds = %27
  %39 = load ptr, ptr %9, align 8, !tbaa !30
  %40 = getelementptr inbounds i8, ptr %39, i64 4
  %41 = load i32, ptr %40, align 1, !tbaa !32
  %42 = load i32, ptr @.str.27, align 1, !tbaa !32
  %43 = icmp ne i32 %41, %42
  br i1 %43, label %44, label %46

44:                                               ; preds = %38
  %45 = load ptr, ptr %4, align 8, !tbaa !4
  call void (ptr, i32, ptr, ...) @av_log(ptr noundef %45, i32 noundef 16, ptr noundef @.str.28)
  store i32 -1094995529, ptr %7, align 4, !tbaa !23
  br label %92

46:                                               ; preds = %38
  %47 = load ptr, ptr %9, align 8, !tbaa !30
  %48 = getelementptr inbounds i8, ptr %47, i64 8
  %49 = load i16, ptr %48, align 1, !tbaa !32
  %50 = call zeroext i16 @av_bswap16(i16 noundef zeroext %49) #5
  %51 = zext i16 %50 to i32
  %52 = icmp slt i32 %51, 28
  br i1 %52, label %53, label %55

53:                                               ; preds = %46
  %54 = load ptr, ptr %4, align 8, !tbaa !4
  call void (ptr, i32, ptr, ...) @av_log(ptr noundef %54, i32 noundef 16, ptr noundef @.str.29)
  store i32 -1094995529, ptr %7, align 4, !tbaa !23
  br label %92

55:                                               ; preds = %46
  %56 = load ptr, ptr %6, align 8, !tbaa !16
  %57 = getelementptr inbounds nuw %struct.ProresMetadataContext, ptr %56, i32 0, i32 1
  %58 = load i32, ptr %57, align 8, !tbaa !18
  %59 = icmp ne i32 %58, -1
  br i1 %59, label %60, label %67

60:                                               ; preds = %55
  %61 = load ptr, ptr %6, align 8, !tbaa !16
  %62 = getelementptr inbounds nuw %struct.ProresMetadataContext, ptr %61, i32 0, i32 1
  %63 = load i32, ptr %62, align 8, !tbaa !18
  %64 = trunc i32 %63 to i8
  %65 = load ptr, ptr %9, align 8, !tbaa !30
  %66 = getelementptr inbounds i8, ptr %65, i64 22
  store i8 %64, ptr %66, align 1, !tbaa !32
  br label %67

67:                                               ; preds = %60, %55
  %68 = load ptr, ptr %6, align 8, !tbaa !16
  %69 = getelementptr inbounds nuw %struct.ProresMetadataContext, ptr %68, i32 0, i32 2
  %70 = load i32, ptr %69, align 4, !tbaa !33
  %71 = icmp ne i32 %70, -1
  br i1 %71, label %72, label %79

72:                                               ; preds = %67
  %73 = load ptr, ptr %6, align 8, !tbaa !16
  %74 = getelementptr inbounds nuw %struct.ProresMetadataContext, ptr %73, i32 0, i32 2
  %75 = load i32, ptr %74, align 4, !tbaa !33
  %76 = trunc i32 %75 to i8
  %77 = load ptr, ptr %9, align 8, !tbaa !30
  %78 = getelementptr inbounds i8, ptr %77, i64 23
  store i8 %76, ptr %78, align 1, !tbaa !32
  br label %79

79:                                               ; preds = %72, %67
  %80 = load ptr, ptr %6, align 8, !tbaa !16
  %81 = getelementptr inbounds nuw %struct.ProresMetadataContext, ptr %80, i32 0, i32 3
  %82 = load i32, ptr %81, align 8, !tbaa !20
  %83 = icmp ne i32 %82, -1
  br i1 %83, label %84, label %91

84:                                               ; preds = %79
  %85 = load ptr, ptr %6, align 8, !tbaa !16
  %86 = getelementptr inbounds nuw %struct.ProresMetadataContext, ptr %85, i32 0, i32 3
  %87 = load i32, ptr %86, align 8, !tbaa !20
  %88 = trunc i32 %87 to i8
  %89 = load ptr, ptr %9, align 8, !tbaa !30
  %90 = getelementptr inbounds i8, ptr %89, i64 24
  store i8 %88, ptr %90, align 1, !tbaa !32
  br label %91

91:                                               ; preds = %84, %79
  br label %92

92:                                               ; preds = %91, %53, %44, %36, %26
  %93 = load i32, ptr %7, align 4, !tbaa !23
  %94 = icmp slt i32 %93, 0
  br i1 %94, label %95, label %97

95:                                               ; preds = %92
  %96 = load ptr, ptr %5, align 8, !tbaa !21
  call void @av_packet_unref(ptr noundef %96)
  br label %97

97:                                               ; preds = %95, %92
  %98 = load i32, ptr %7, align 4, !tbaa !23
  store i32 %98, ptr %3, align 4
  store i32 1, ptr %10, align 4
  br label %99

99:                                               ; preds = %97, %19
  call void @llvm.lifetime.end.p0(i64 8, ptr %9) #4
  call void @llvm.lifetime.end.p0(i64 4, ptr %8) #4
  call void @llvm.lifetime.end.p0(i64 4, ptr %7) #4
  call void @llvm.lifetime.end.p0(i64 8, ptr %6) #4
  %100 = load i32, ptr %3, align 4
  ret i32 %100
}