; Function Attrs: nounwind uwtable
define internal i32 @prores_metadata(ptr noundef %0, ptr noundef %1) #0 {
  %3 = getelementptr inbounds nuw i8, ptr %0, i64 16
  %4 = load ptr, ptr %3, align 8, !tbaa !4
  %5 = tail call i32 @ff_bsf_get_packet_ref(ptr noundef %0, ptr noundef %1) #3
  %6 = icmp slt i32 %5, 0
  br i1 %6, label %43, label %7

7:                                                ; preds = %2
  %8 = tail call i32 @av_packet_make_writable(ptr noundef %1) #3
  %9 = icmp slt i32 %8, 0
  br i1 %9, label %42, label %10

10:                                               ; preds = %7
  %11 = getelementptr inbounds nuw i8, ptr %1, i64 24
  %12 = load ptr, ptr %11, align 8, !tbaa !17
  %13 = getelementptr inbounds nuw i8, ptr %1, i64 32
  %14 = load i32, ptr %13, align 8, !tbaa !23
  %15 = icmp slt i32 %14, 28
  br i1 %15, label %.sink.split, label %16

16:                                               ; preds = %10
  %17 = getelementptr inbounds nuw i8, ptr %12, i64 4
  %18 = load i32, ptr %17, align 1, !tbaa !24
  %.not = icmp eq i32 %18, 1718641513
  br i1 %.not, label %19, label %.sink.split

19:                                               ; preds = %16
  %20 = getelementptr inbounds nuw i8, ptr %12, i64 8
  %21 = load i16, ptr %20, align 1, !tbaa !24
  %22 = tail call i16 @llvm.bswap.i16(i16 %21)
  %23 = icmp ult i16 %22, 28
  br i1 %23, label %.sink.split, label %24

24:                                               ; preds = %19
  %25 = getelementptr inbounds nuw i8, ptr %4, i64 8
  %26 = load i32, ptr %25, align 8, !tbaa !14
  %.not33 = icmp eq i32 %26, -1
  br i1 %.not33, label %30, label %27

27:                                               ; preds = %24
  %28 = trunc i32 %26 to i8
  %29 = getelementptr inbounds nuw i8, ptr %12, i64 22
  store i8 %28, ptr %29, align 1, !tbaa !24
  br label %30

30:                                               ; preds = %27, %24
  %31 = getelementptr inbounds nuw i8, ptr %4, i64 12
  %32 = load i32, ptr %31, align 4, !tbaa !25
  %.not34 = icmp eq i32 %32, -1
  br i1 %.not34, label %36, label %33

33:                                               ; preds = %30
  %34 = trunc i32 %32 to i8
  %35 = getelementptr inbounds nuw i8, ptr %12, i64 23
  store i8 %34, ptr %35, align 1, !tbaa !24
  br label %36

36:                                               ; preds = %33, %30
  %37 = getelementptr inbounds nuw i8, ptr %4, i64 16
  %38 = load i32, ptr %37, align 8, !tbaa !16
  %.not35 = icmp eq i32 %38, -1
  br i1 %.not35, label %43, label %39

39:                                               ; preds = %36
  %40 = trunc i32 %38 to i8
  %41 = getelementptr inbounds nuw i8, ptr %12, i64 24
  store i8 %40, ptr %41, align 1, !tbaa !24
  br label %43

.sink.split:                                      ; preds = %19, %16, %10
  %.str.26.sink = phi ptr [ @.str.26, %10 ], [ @.str.28, %16 ], [ @.str.29, %19 ]
  tail call void (ptr, i32, ptr, ...) @av_log(ptr noundef nonnull %0, i32 noundef 16, ptr noundef nonnull %.str.26.sink) #3
  br label %42

42:                                               ; preds = %.sink.split, %7
  %.027.ph = phi i32 [ %8, %7 ], [ -1094995529, %.sink.split ]
  tail call void @av_packet_unref(ptr noundef %1) #3
  br label %43

43:                                               ; preds = %39, %36, %42, %2
  %.0 = phi i32 [ %5, %2 ], [ %.027.ph, %42 ], [ %8, %39 ], [ %8, %36 ]
  ret i32 %.0
}